; Function Attrs: nounwind uwtable
define dso_local void @packmem_array(ptr noundef readonly captures(none) %0, i32 noundef %1, ptr noundef %2) #0 {
  %4 = getelementptr inbounds nuw i8, ptr %2, i64 16
  %5 = load i32, ptr %4, align 8
  %6 = getelementptr inbounds nuw i8, ptr %2, i64 20
  %7 = load i32, ptr %6, align 4
  %8 = sub i32 %5, %7
  %9 = icmp ult i32 %8, %1
  br i1 %9, label %10, label %try_grow_buf_remaining.exit

10:                                               ; preds = %3
  %11 = add i32 %5, 16384
  %12 = zext i32 %11 to i64
  %13 = icmp ugt i32 %1, 16383
  %narrow.i.i = select i1 %13, i32 %1, i32 0
  %14 = zext i32 %narrow.i.i to i64
  %.0.i.i = add nuw nsw i64 %12, %14
  %15 = getelementptr inbounds nuw i8, ptr %2, i64 24
  %16 = load i8, ptr %15, align 8, !range !8, !noundef !9
  %17 = trunc nuw i8 %16 to i1
  br i1 %17, label %try_grow_buf_remaining.exit.thread, label %18

18:                                               ; preds = %10
  %19 = getelementptr inbounds nuw i8, ptr %2, i64 25
  %20 = load i8, ptr %19, align 1, !range !8, !noundef !9
  %21 = trunc nuw i8 %20 to i1
  br i1 %21, label %try_grow_buf_remaining.exit.thread, label %22

22:                                               ; preds = %18
  %23 = icmp samesign ugt i64 %.0.i.i, 4294901760
  br i1 %23, label %24, label %26

24:                                               ; preds = %22
  %25 = tail call i32 (ptr, ...) @error(ptr noundef nonnull @.str.8, ptr noundef nonnull @__func__.try_grow_buf, i64 noundef %.0.i.i, i32 noundef -65536) #14
  br label %try_grow_buf_remaining.exit.thread

26:                                               ; preds = %22
  %27 = getelementptr inbounds nuw i8, ptr %2, i64 8
  %28 = tail call ptr @slurm_xrecalloc(ptr noundef nonnull %27, i64 noundef 1, i64 noundef %.0.i.i, i1 noundef zeroext true, i1 noundef zeroext true, ptr noundef nonnull @.str.1, i32 noundef 238, ptr noundef nonnull @__func__.try_grow_buf) #14
  %.not.i.i = icmp eq ptr %28, null
  br i1 %.not.i.i, label %try_grow_buf_remaining.exit.thread, label %29

29:                                               ; preds = %26
  %30 = trunc nuw i64 %.0.i.i to i32
  store i32 %30, ptr %4, align 8
  %.pre = load i32, ptr %6, align 4
  br label %try_grow_buf_remaining.exit

try_grow_buf_remaining.exit:                      ; preds = %29, %3
  %31 = phi i32 [ %.pre, %29 ], [ %7, %3 ]
  %32 = getelementptr inbounds nuw i8, ptr %2, i64 8
  %33 = load ptr, ptr %32, align 8
  %34 = zext i32 %31 to i64
  %35 = getelementptr inbounds nuw i8, ptr %33, i64 %34
  %36 = zext i32 %1 to i64
  tail call void @llvm.memcpy.p0.p0.i64(ptr align 1 %35, ptr align 1 %0, i64 %36, i1 false)
  %37 = load i32, ptr %6, align 4
  %38 = add i32 %37, %1
  store i32 %38, ptr %6, align 4
  br label %try_grow_buf_remaining.exit.thread

try_grow_buf_remaining.exit.thread:               ; preds = %26, %10, %18, %24, %try_grow_buf_remaining.exit
  ret void
}